; Function Attrs: null_pointer_is_valid sspstrong uwtable
define internal i32 @get_zabbix_pdu_len(ptr readnone captures(none) %0, ptr noundef %1, i32 noundef %2, ptr readnone captures(none) %3) #0 {
  %5 = add i32 %2, 4
  %6 = tail call zeroext i8 @tvb_get_uint8(ptr noundef %1, i32 noundef %5)
  %7 = and i8 %6, 4
  %.not = icmp eq i8 %7, 0
  %8 = add i32 %2, 5
  br i1 %.not, label %13, label %9

9:                                                ; preds = %4
  %10 = tail call i64 @tvb_get_uint64(ptr noundef %1, i32 noundef %8, i32 noundef -2147483648)
  %11 = trunc i64 %10 to i32
  %12 = add i32 %11, 21
  br label %16

13:                                               ; preds = %4
  %14 = tail call i32 @tvb_get_uint32(ptr noundef %1, i32 noundef %8, i32 noundef -2147483648)
  %15 = add i32 %14, 13
  br label %16

16:                                               ; preds = %13, %9
  %.0 = phi i32 [ %12, %9 ], [ %15, %13 ]
  ret i32 %.0
}